target datalayout = "e-m:e-p270:32:32-p271:32:32-p272:64:64-i64:64-i128:128-f80:128-n8:16:32:64-S128"
target triple = "x86_64-pc-linux-gnu"

@ntlmssp_handle = internal global ptr null, align 8
@gssapi_handle = internal global ptr null, align 8
@spnego_handle = internal global ptr null, align 8
@.str.1368 = private unnamed_addr constant [8 x i8] c"NTLMSSP\00", align 1

; Function Attrs: null_pointer_is_valid sspstrong uwtable
define internal void @dissect_tds_nt(ptr noundef %0, ptr noundef %1, ptr noundef %2, i32 noundef %3) #0 {
  %5 = alloca ptr, align 8
  %6 = alloca ptr, align 8
  %7 = alloca ptr, align 8
  %8 = alloca i32, align 4
  %9 = alloca ptr, align 8
  %10 = alloca i8, align 1
  %11 = alloca i8, align 1
  %12 = alloca i32, align 4
  store ptr %0, ptr %5, align 8
  store ptr %1, ptr %6, align 8
  store ptr %2, ptr %7, align 8
  store i32 %3, ptr %8, align 4
  call void @llvm.lifetime.start.p0(i64 8, ptr %9) #11
  call void @llvm.lifetime.start.p0(i64 1, ptr %10) #11
  call void @llvm.lifetime.start.p0(i64 1, ptr %11) #11
  call void @llvm.lifetime.start.p0(i64 4, ptr %12) #11
  %13 = load ptr, ptr %5, align 8
  %14 = load i32, ptr %8, align 4
  %15 = call ptr @tvb_new_subset_remaining(ptr noundef %13, i32 noundef %14)
  store ptr %15, ptr %9, align 8
  %16 = load ptr, ptr %5, align 8
  %17 = load i32, ptr %8, align 4
  %18 = call i32 @tvb_strneql(ptr noundef %16, i32 noundef %17, ptr noundef @.str.1368, i64 noundef 7)
  %19 = icmp eq i32 %18, 0
  br i1 %19, label %20, label %26

20:                                               ; preds = %4
  %21 = load ptr, ptr @ntlmssp_handle, align 8
  %22 = load ptr, ptr %9, align 8
  %23 = load ptr, ptr %6, align 8
  %24 = load ptr, ptr %7, align 8
  %25 = call i32 @call_dissector(ptr noundef %21, ptr noundef %22, ptr noundef %23, ptr noundef %24)
  br label %55

26:                                               ; preds = %4
  %27 = load ptr, ptr %5, align 8
  %28 = load i32, ptr %8, align 4
  %29 = call i32 @get_ber_identifier(ptr noundef %27, i32 noundef %28, ptr noundef %10, ptr noundef %11, ptr noundef %12)
  %30 = load i8, ptr %10, align 1
  %31 = sext i8 %30 to i32
  %32 = icmp eq i32 %31, 2
  br i1 %32, label %33, label %48

33:                                               ; preds = %26
  %34 = load i8, ptr %11, align 1, !range !6, !noundef !7
  %35 = trunc i8 %34 to i1
  br i1 %35, label %36, label %48

36:                                               ; preds = %33
  %37 = load i32, ptr %12, align 4
  %38 = icmp eq i32 %37, 0
  br i1 %38, label %42, label %39

39:                                               ; preds = %36
  %40 = load i32, ptr %12, align 4
  %41 = icmp eq i32 %40, 1
  br i1 %41, label %42, label %48

42:                                               ; preds = %39, %36
  %43 = load ptr, ptr @spnego_handle, align 8
  %44 = load ptr, ptr %9, align 8
  %45 = load ptr, ptr %6, align 8
  %46 = load ptr, ptr %7, align 8
  %47 = call i32 @call_dissector(ptr noundef %43, ptr noundef %44, ptr noundef %45, ptr noundef %46)
  br label %54

48:                                               ; preds = %39, %33, %26
  %49 = load ptr, ptr @gssapi_handle, align 8
  %50 = load ptr, ptr %9, align 8
  %51 = load ptr, ptr %6, align 8
  %52 = load ptr, ptr %7, align 8
  %53 = call i32 @call_dissector(ptr noundef %49, ptr noundef %50, ptr noundef %51, ptr noundef %52)
  br label %54

54:                                               ; preds = %48, %42
  br label %55

55:                                               ; preds = %54, %20
  call void @llvm.lifetime.end.p0(i64 4, ptr %12) #11
  call void @llvm.lifetime.end.p0(i64 1, ptr %11) #11
  call void @llvm.lifetime.end.p0(i64 1, ptr %10) #11
  call void @llvm.lifetime.end.p0(i64 8, ptr %9) #11
  ret void
}