; Function Attrs: null_pointer_is_valid sspstrong uwtable
define internal fastcc void @dissect_tds_nt(ptr noundef nonnull %0, ptr noundef %1, ptr noundef %2, i32 noundef %3) unnamed_addr #0 {
  %5 = alloca i8, align 1
  %6 = alloca i8, align 1
  %7 = alloca i32, align 4
  call void @llvm.lifetime.start.p0(i64 1, ptr nonnull %5) #13
  call void @llvm.lifetime.start.p0(i64 1, ptr nonnull %6) #13
  call void @llvm.lifetime.start.p0(i64 4, ptr nonnull %7) #13
  %8 = tail call ptr @tvb_new_subset_remaining(ptr noundef nonnull %0, i32 noundef %3)
  %9 = tail call i32 @tvb_strneql(ptr noundef nonnull %0, i32 noundef %3, ptr noundef nonnull @.str.1368, i64 noundef 7)
  %10 = icmp eq i32 %9, 0
  br i1 %10, label %11, label %14

11:                                               ; preds = %4
  %12 = load ptr, ptr @ntlmssp_handle, align 8
  %13 = tail call i32 @call_dissector(ptr noundef %12, ptr noundef %8, ptr noundef %1, ptr noundef %2)
  br label %28

14:                                               ; preds = %4
  %15 = call i32 @get_ber_identifier(ptr noundef nonnull %0, i32 noundef %3, ptr noundef nonnull %5, ptr noundef nonnull %6, ptr noundef nonnull %7)
  %16 = load i8, ptr %5, align 1
  %17 = icmp eq i8 %16, 2
  br i1 %17, label %18, label %25

18:                                               ; preds = %14
  %19 = load i8, ptr %6, align 1, !range !6, !noundef !7
  %20 = trunc nuw i8 %19 to i1
  %21 = load i32, ptr %7, align 4
  %or.cond = icmp ult i32 %21, 2
  %or.cond15 = select i1 %20, i1 %or.cond, i1 false
  br i1 %or.cond15, label %22, label %25

22:                                               ; preds = %18
  %23 = load ptr, ptr @spnego_handle, align 8
  %24 = call i32 @call_dissector(ptr noundef %23, ptr noundef %8, ptr noundef %1, ptr noundef %2)
  br label %28

25:                                               ; preds = %18, %14
  %26 = load ptr, ptr @gssapi_handle, align 8
  %27 = call i32 @call_dissector(ptr noundef %26, ptr noundef %8, ptr noundef %1, ptr noundef %2)
  br label %28

28:                                               ; preds = %22, %25, %11
  call void @llvm.lifetime.end.p0(i64 4, ptr nonnull %7) #13
  call void @llvm.lifetime.end.p0(i64 1, ptr nonnull %6) #13
  call void @llvm.lifetime.end.p0(i64 1, ptr nonnull %5) #13
  ret void
}